target datalayout = "e-m:e-p270:32:32-p271:32:32-p272:64:64-i64:64-i128:128-f80:128-n8:16:32:64-S128"
target triple = "x86_64-pc-linux-gnu"

%"struct.google::SiteFlag" = type { ptr, ptr, i64, ptr }

@_ZN3fLI7FLAGS_vE = external global i32, align 4
@.str.32 = private unnamed_addr constant [111 x i8] c"generated/home/dtcxzyw/WorkSpace/Projects/compilers/llvm-opt-benchmark/bench/glog/glog/src/logging_unittest.cc\00", align 1
@_ZZ14TestVlogHelpervE8vlocal__ = internal global %"struct.google::SiteFlag" zeroinitializer, align 8

; Function Attrs: mustprogress uwtable
define hidden noundef i32 @_Z14TestVlogHelperv() #4 {
  %1 = alloca i32, align 4
  %2 = alloca i32, align 4
  %3 = alloca i8, align 1
  store i32 1, ptr %2, align 4
  %4 = load ptr, ptr @_ZZ14TestVlogHelpervE8vlocal__, align 8
  %5 = icmp eq ptr %4, null
  br i1 %5, label %6, label %9

6:                                                ; preds = %0
  %7 = load i32, ptr %2, align 4
  %8 = call noundef zeroext i1 @_ZN6google11InitVLOG3__EPNS_8SiteFlagEPiPKci(ptr noundef @_ZZ14TestVlogHelpervE8vlocal__, ptr noundef @_ZN3fLI7FLAGS_vE, ptr noundef @.str.32, i32 noundef %7)
  br label %14

9:                                                ; preds = %0
  %10 = load ptr, ptr @_ZZ14TestVlogHelpervE8vlocal__, align 8
  %11 = load i32, ptr %10, align 4
  %12 = load i32, ptr %2, align 4
  %13 = icmp sge i32 %11, %12
  br label %14

14:                                               ; preds = %9, %6
  %15 = phi i1 [ %8, %6 ], [ %13, %9 ]
  %16 = zext i1 %15 to i8
  store i8 %16, ptr %3, align 1
  %17 = load i8, ptr %3, align 1
  %18 = trunc i8 %17 to i1
  br i1 %18, label %19, label %20

19:                                               ; preds = %14
  store i32 1, ptr %1, align 4
  br label %21

20:                                               ; preds = %14
  store i32 0, ptr %1, align 4
  br label %21

21:                                               ; preds = %20, %19
  %22 = load i32, ptr %1, align 4
  ret i32 %22
}