; Function Attrs: mustprogress uwtable
define hidden noundef i32 @_Z14TestVlogHelperv() local_unnamed_addr #3 {
  %1 = load ptr, ptr @_ZZ14TestVlogHelpervE8vlocal__, align 8
  %2 = icmp eq ptr %1, null
  br i1 %2, label %3, label %5

3:                                                ; preds = %0
  %4 = tail call noundef zeroext i1 @_ZN6google11InitVLOG3__EPNS_8SiteFlagEPiPKci(ptr noundef nonnull @_ZZ14TestVlogHelpervE8vlocal__, ptr noundef nonnull @_ZN3fLI7FLAGS_vE, ptr noundef nonnull @.str.32, i32 noundef 1)
  br label %8

5:                                                ; preds = %0
  %6 = load i32, ptr %1, align 4
  %7 = icmp sgt i32 %6, 0
  br label %8

8:                                                ; preds = %5, %3
  %9 = phi i1 [ %4, %3 ], [ %7, %5 ]
  %. = zext i1 %9 to i32
  ret i32 %.
}